; Function Attrs: mustprogress uwtable
define internal noundef i32 @_ZN4LuauL14getGenericNameEP9lua_State(ptr noundef %0) #2 personality ptr @__gxx_personality_v0 {
  %2 = alloca %"class.std::__cxx11::basic_string", align 8
  %3 = tail call noundef ptr @_Z20lua_touserdatataggedP9lua_Stateii(ptr noundef %0, i32 noundef 1, i32 noundef 42)
  %.not.not.i = icmp eq ptr %3, null
  br i1 %.not.not.i, label %4, label %_ZN4Luau15getTypeUserDataEP9lua_Statei.exit

4:                                                ; preds = %1
  tail call void @_Z15luaL_typeerrorLP9lua_StateiPKc(ptr noundef %0, i32 noundef 1, ptr noundef nonnull @.str.67) #29
  unreachable

_ZN4Luau15getTypeUserDataEP9lua_Statei.exit:      ; preds = %1
  %5 = load ptr, ptr %3, align 8, !tbaa !29
  %.not.i = icmp eq ptr %5, null
  br i1 %.not.i, label %8, label %_ZN4Luau6get_ifINS_23TypeFunctionGenericTypeEJNS_25TypeFunctionPrimitiveTypeENS_19TypeFunctionAnyTypeENS_23TypeFunctionUnknownTypeENS_21TypeFunctionNeverTypeENS_25TypeFunctionSingletonTypeENS_21TypeFunctionUnionTypeENS_28TypeFunctionIntersectionTypeENS_24TypeFunctionNegationTypeENS_24TypeFunctionFunctionTypeENS_21TypeFunctionTableTypeENS_21TypeFunctionClassTypeES1_EEEPKT_PKNS_7VariantIJDpT0_EEE.exit.i

_ZN4Luau6get_ifINS_23TypeFunctionGenericTypeEJNS_25TypeFunctionPrimitiveTypeENS_19TypeFunctionAnyTypeENS_23TypeFunctionUnknownTypeENS_21TypeFunctionNeverTypeENS_25TypeFunctionSingletonTypeENS_21TypeFunctionUnionTypeENS_28TypeFunctionIntersectionTypeENS_24TypeFunctionNegationTypeENS_24TypeFunctionFunctionTypeENS_21TypeFunctionTableTypeENS_21TypeFunctionClassTypeES1_EEEPKT_PKNS_7VariantIJDpT0_EEE.exit.i: ; preds = %_ZN4Luau15getTypeUserDataEP9lua_Statei.exit
  %6 = load i32, ptr %5, align 8, !tbaa !31
  %7 = icmp eq i32 %6, 11
  br i1 %7, label %_ZN4Luau3getINS_23TypeFunctionGenericTypeEEEPKT_PKNS_16TypeFunctionTypeE.exit, label %8

8:                                                ; preds = %_ZN4Luau6get_ifINS_23TypeFunctionGenericTypeEJNS_25TypeFunctionPrimitiveTypeENS_19TypeFunctionAnyTypeENS_23TypeFunctionUnknownTypeENS_21TypeFunctionNeverTypeENS_25TypeFunctionSingletonTypeENS_21TypeFunctionUnionTypeENS_28TypeFunctionIntersectionTypeENS_24TypeFunctionNegationTypeENS_24TypeFunctionFunctionTypeENS_21TypeFunctionTableTypeENS_21TypeFunctionClassTypeES1_EEEPKT_PKNS_7VariantIJDpT0_EEE.exit.i, %_ZN4Luau15getTypeUserDataEP9lua_Statei.exit
  call void @llvm.lifetime.start.p0(i64 32, ptr nonnull %2) #27
  call fastcc void @_ZN4LuauL6getTagB5cxx11EP9lua_StatePKNS_16TypeFunctionTypeE(ptr dead_on_unwind noalias writable align 8 %2, ptr noundef %5)
  %9 = load ptr, ptr %2, align 8, !tbaa !15
  invoke void (ptr, ptr, ...) @_Z11luaL_errorLP9lua_StatePKcz(ptr noundef %0, ptr noundef nonnull @.str.220, ptr noundef %9) #29
          to label %10 unwind label %11

10:                                               ; preds = %8
  unreachable

11:                                               ; preds = %8
  %12 = landingpad { ptr, i32 }
          cleanup
  %13 = load ptr, ptr %2, align 8, !tbaa !15
  %14 = getelementptr inbounds nuw i8, ptr %2, i64 16
  %15 = icmp eq ptr %13, %14
  br i1 %15, label %_ZNKSt7__cxx1112basic_stringIcSt11char_traitsIcESaIcEE11_M_is_localEv.exit.thread.i.i, label %_ZNKSt7__cxx1112basic_stringIcSt11char_traitsIcESaIcEE11_M_is_localEv.exit.i.i

_ZNKSt7__cxx1112basic_stringIcSt11char_traitsIcESaIcEE11_M_is_localEv.exit.thread.i.i: ; preds = %11
  %16 = getelementptr inbounds nuw i8, ptr %2, i64 8
  %17 = load i64, ptr %16, align 8, !tbaa !18
  %18 = icmp ult i64 %17, 16
  call void @llvm.assume(i1 %18)
  br label %_ZNSt7__cxx1112basic_stringIcSt11char_traitsIcESaIcEED2Ev.exit

_ZNKSt7__cxx1112basic_stringIcSt11char_traitsIcESaIcEE11_M_is_localEv.exit.i.i: ; preds = %11
  %19 = load i64, ptr %14, align 8, !tbaa !19
  %20 = add i64 %19, 1
  call void @_ZdlPvm(ptr noundef %13, i64 noundef %20) #30
  br label %_ZNSt7__cxx1112basic_stringIcSt11char_traitsIcESaIcEED2Ev.exit

_ZNSt7__cxx1112basic_stringIcSt11char_traitsIcESaIcEED2Ev.exit: ; preds = %_ZNKSt7__cxx1112basic_stringIcSt11char_traitsIcESaIcEE11_M_is_localEv.exit.thread.i.i, %_ZNKSt7__cxx1112basic_stringIcSt11char_traitsIcESaIcEE11_M_is_localEv.exit.i.i
  call void @llvm.lifetime.end.p0(i64 32, ptr nonnull %2) #27
  resume { ptr, i32 } %12

_ZN4Luau3getINS_23TypeFunctionGenericTypeEEEPKT_PKNS_16TypeFunctionTypeE.exit: ; preds = %_ZN4Luau6get_ifINS_23TypeFunctionGenericTypeEJNS_25TypeFunctionPrimitiveTypeENS_19TypeFunctionAnyTypeENS_23TypeFunctionUnknownTypeENS_21TypeFunctionNeverTypeENS_25TypeFunctionSingletonTypeENS_21TypeFunctionUnionTypeENS_28TypeFunctionIntersectionTypeENS_24TypeFunctionNegationTypeENS_24TypeFunctionFunctionTypeENS_21TypeFunctionTableTypeENS_21TypeFunctionClassTypeES1_EEEPKT_PKNS_7VariantIJDpT0_EEE.exit.i
  %21 = getelementptr inbounds nuw i8, ptr %5, i64 8
  %22 = load i8, ptr %21, align 8, !tbaa !95, !range !101, !noundef !102
  %23 = trunc nuw i8 %22 to i1
  br i1 %23, label %24, label %27

24:                                               ; preds = %_ZN4Luau3getINS_23TypeFunctionGenericTypeEEEPKT_PKNS_16TypeFunctionTypeE.exit
  %25 = getelementptr inbounds nuw i8, ptr %5, i64 16
  %26 = load ptr, ptr %25, align 8, !tbaa !15
  tail call void @_Z14lua_pushstringP9lua_StatePKc(ptr noundef %0, ptr noundef %26)
  br label %28

27:                                               ; preds = %_ZN4Luau3getINS_23TypeFunctionGenericTypeEEEPKT_PKNS_16TypeFunctionTypeE.exit
  tail call void @_Z11lua_pushnilP9lua_State(ptr noundef %0)
  br label %28

28:                                               ; preds = %27, %24
  ret i32 1
}